target datalayout = "e-m:e-p270:32:32-p271:32:32-p272:64:64-i64:64-i128:128-f80:128-n8:16:32:64-S128"
target triple = "x86_64-pc-linux-gnu"

; Function Attrs: nounwind uwtable
define internal i32 @consume(ptr noundef %0, i64 noundef %1) #0 {
  %3 = alloca ptr, align 8
  %4 = alloca i64, align 8
  %5 = alloca i32, align 4
  store ptr %0, ptr %3, align 8, !tbaa !13
  store i64 %1, ptr %4, align 8, !tbaa !42
  call void @llvm.lifetime.start.p0(i64 4, ptr %5) #11
  %6 = load i64, ptr %4, align 8, !tbaa !42
  %7 = load ptr, ptr %3, align 8, !tbaa !13
  %8 = load i64, ptr %4, align 8, !tbaa !42
  %9 = call i64 @__archive_read_consume(ptr noundef %7, i64 noundef %8)
  %10 = icmp eq i64 %6, %9
  %11 = select i1 %10, i32 0, i32 -30
  store i32 %11, ptr %5, align 4, !tbaa !9
  %12 = load i32, ptr %5, align 4, !tbaa !9
  call void @llvm.lifetime.end.p0(i64 4, ptr %5) #11
  ret i32 %12
}

; Function Attrs: inlinehint nounwind uwtable
define internal i32 @archive_le32dec(ptr noundef %0) #2 {
  %2 = alloca ptr, align 8
  %3 = alloca ptr, align 8
  %4 = alloca i32, align 4
  %5 = alloca i32, align 4
  %6 = alloca i32, align 4
  %7 = alloca i32, align 4
  store ptr %0, ptr %2, align 8, !tbaa !40
  call void @llvm.lifetime.start.p0(i64 8, ptr %3) #11
  %8 = load ptr, ptr %2, align 8, !tbaa !40
  store ptr %8, ptr %3, align 8, !tbaa !33
  call void @llvm.lifetime.start.p0(i64 4, ptr %4) #11
  %9 = load ptr, ptr %3, align 8, !tbaa !33
  %10 = getelementptr inbounds i8, ptr %9, i64 3
  %11 = load i8, ptr %10, align 1, !tbaa !75
  %12 = zext i8 %11 to i32
  store i32 %12, ptr %4, align 4, !tbaa !9
  call void @llvm.lifetime.start.p0(i64 4, ptr %5) #11
  %13 = load ptr, ptr %3, align 8, !tbaa !33
  %14 = getelementptr inbounds i8, ptr %13, i64 2
  %15 = load i8, ptr %14, align 1, !tbaa !75
  %16 = zext i8 %15 to i32
  store i32 %16, ptr %5, align 4, !tbaa !9
  call void @llvm.lifetime.start.p0(i64 4, ptr %6) #11
  %17 = load ptr, ptr %3, align 8, !tbaa !33
  %18 = getelementptr inbounds i8, ptr %17, i64 1
  %19 = load i8, ptr %18, align 1, !tbaa !75
  %20 = zext i8 %19 to i32
  store i32 %20, ptr %6, align 4, !tbaa !9
  call void @llvm.lifetime.start.p0(i64 4, ptr %7) #11
  %21 = load ptr, ptr %3, align 8, !tbaa !33
  %22 = getelementptr inbounds i8, ptr %21, i64 0
  %23 = load i8, ptr %22, align 1, !tbaa !75
  %24 = zext i8 %23 to i32
  store i32 %24, ptr %7, align 4, !tbaa !9
  %25 = load i32, ptr %4, align 4, !tbaa !9
  %26 = shl i32 %25, 24
  %27 = load i32, ptr %5, align 4, !tbaa !9
  %28 = shl i32 %27, 16
  %29 = or i32 %26, %28
  %30 = load i32, ptr %6, align 4, !tbaa !9
  %31 = shl i32 %30, 8
  %32 = or i32 %29, %31
  %33 = load i32, ptr %7, align 4, !tbaa !9
  %34 = or i32 %32, %33
  call void @llvm.lifetime.end.p0(i64 4, ptr %7) #11
  call void @llvm.lifetime.end.p0(i64 4, ptr %6) #11
  call void @llvm.lifetime.end.p0(i64 4, ptr %5) #11
  call void @llvm.lifetime.end.p0(i64 4, ptr %4) #11
  call void @llvm.lifetime.end.p0(i64 8, ptr %3) #11
  ret i32 %34
}

; Function Attrs: nounwind uwtable
define internal i32 @read_ahead(ptr noundef %0, i64 noundef %1, ptr noundef %2) #0 {
  %4 = alloca i32, align 4
  %5 = alloca ptr, align 8
  %6 = alloca i64, align 8
  %7 = alloca ptr, align 8
  %8 = alloca i64, align 8
  %9 = alloca i32, align 4
  store ptr %0, ptr %5, align 8, !tbaa !13
  store i64 %1, ptr %6, align 8, !tbaa !42
  store ptr %2, ptr %7, align 8, !tbaa !79
  call void @llvm.lifetime.start.p0(i64 8, ptr %8) #11
  store i64 -1, ptr %8, align 8, !tbaa !42
  %10 = load ptr, ptr %7, align 8, !tbaa !79
  %11 = icmp ne ptr %10, null
  br i1 %11, label %13, label %12

12:                                               ; preds = %3
  store i32 0, ptr %4, align 4
  store i32 1, ptr %9, align 4
  br label %23

13:                                               ; preds = %3
  %14 = load ptr, ptr %5, align 8, !tbaa !13
  %15 = load i64, ptr %6, align 8, !tbaa !42
  %16 = call ptr @__archive_read_ahead(ptr noundef %14, i64 noundef %15, ptr noundef %8)
  %17 = load ptr, ptr %7, align 8, !tbaa !79
  store ptr %16, ptr %17, align 8, !tbaa !33
  %18 = load ptr, ptr %7, align 8, !tbaa !79
  %19 = load ptr, ptr %18, align 8, !tbaa !33
  %20 = icmp eq ptr %19, null
  br i1 %20, label %21, label %22

21:                                               ; preds = %13
  store i32 0, ptr %4, align 4
  store i32 1, ptr %9, align 4
  br label %23

22:                                               ; preds = %13
  store i32 1, ptr %4, align 4
  store i32 1, ptr %9, align 4
  br label %23

23:                                               ; preds = %22, %21, %12
  call void @llvm.lifetime.end.p0(i64 8, ptr %8) #11
  %24 = load i32, ptr %4, align 4
  ret i32 %24
}

; Function Attrs: nounwind uwtable
define internal i32 @read_u32(ptr noundef %0, ptr noundef %1) #0 {
  %3 = alloca i32, align 4
  %4 = alloca ptr, align 8
  %5 = alloca ptr, align 8
  %6 = alloca ptr, align 8
  %7 = alloca i32, align 4
  store ptr %0, ptr %4, align 8, !tbaa !13
  store ptr %1, ptr %5, align 8, !tbaa !90
  call void @llvm.lifetime.start.p0(i64 8, ptr %6) #11
  %8 = load ptr, ptr %4, align 8, !tbaa !13
  %9 = call i32 @read_ahead(ptr noundef %8, i64 noundef 4, ptr noundef %6)
  %10 = icmp ne i32 %9, 0
  br i1 %10, label %12, label %11

11:                                               ; preds = %2
  store i32 0, ptr %3, align 4
  store i32 1, ptr %7, align 4
  br label %20

12:                                               ; preds = %2
  %13 = load ptr, ptr %6, align 8, !tbaa !33
  %14 = call i32 @archive_le32dec(ptr noundef %13)
  %15 = load ptr, ptr %5, align 8, !tbaa !90
  store i32 %14, ptr %15, align 4, !tbaa !9
  %16 = load ptr, ptr %4, align 8, !tbaa !13
  %17 = call i32 @consume(ptr noundef %16, i64 noundef 4)
  %18 = icmp eq i32 0, %17
  %19 = select i1 %18, i32 1, i32 0
  store i32 %19, ptr %3, align 4
  store i32 1, ptr %7, align 4
  br label %20

20:                                               ; preds = %12, %11
  call void @llvm.lifetime.end.p0(i64 8, ptr %6) #11
  %21 = load i32, ptr %3, align 4
  ret i32 %21
}