; Function Attrs: nounwind uwtable
define internal fastcc range(i32 0, 2) i32 @read_u32(ptr noundef %0, ptr noundef writeonly captures(none) %1) unnamed_addr #0 {
  %3 = alloca i64, align 8
  call void @llvm.lifetime.start.p0(i64 8, ptr nonnull %3) #15
  store i64 -1, ptr %3, align 8, !tbaa !29
  %4 = call ptr @__archive_read_ahead(ptr noundef %0, i64 noundef 4, ptr noundef nonnull %3) #15
  %.not3 = icmp eq ptr %4, null
  call void @llvm.lifetime.end.p0(i64 8, ptr nonnull %3) #15
  br i1 %.not3, label %10, label %5

5:                                                ; preds = %2
  %6 = load i32, ptr %4, align 1
  store i32 %6, ptr %1, align 4, !tbaa !82
  %7 = call i64 @__archive_read_consume(ptr noundef %0, i64 noundef 4) #15
  %8 = icmp eq i64 %7, 4
  %9 = zext i1 %8 to i32
  br label %10

10:                                               ; preds = %2, %5
  %.0 = phi i32 [ %9, %5 ], [ 0, %2 ]
  ret i32 %.0
}